target datalayout = "e-m:e-p270:32:32-p271:32:32-p272:64:64-i64:64-i128:128-f80:128-n8:16:32:64-S128"
target triple = "x86_64-pc-linux-gnu"

%struct.aclSelector = type { i32, [16 x i64], ptr, ptr, ptr, ptr }

; Function Attrs: nounwind uwtable
define dso_local void @ACLResetFirstArgs(ptr noundef %0) #0 {
  %2 = alloca ptr, align 8
  %3 = alloca i32, align 4
  %4 = alloca i32, align 4
  %5 = alloca i32, align 4
  store ptr %0, ptr %2, align 8, !tbaa !32
  %6 = load ptr, ptr %2, align 8, !tbaa !32
  %7 = getelementptr inbounds nuw %struct.aclSelector, ptr %6, i32 0, i32 2
  %8 = load ptr, ptr %7, align 8, !tbaa !69
  %9 = icmp eq ptr %8, null
  br i1 %9, label %10, label %11

10:                                               ; preds = %1
  br label %73

11:                                               ; preds = %1
  call void @llvm.lifetime.start.p0(i64 4, ptr %3) #14
  store i32 0, ptr %3, align 4, !tbaa !17
  br label %12

12:                                               ; preds = %64, %11
  %13 = load i32, ptr %3, align 4, !tbaa !17
  %14 = icmp slt i32 %13, 1024
  br i1 %14, label %16, label %15

15:                                               ; preds = %12
  store i32 2, ptr %4, align 4
  call void @llvm.lifetime.end.p0(i64 4, ptr %3) #14
  br label %67

16:                                               ; preds = %12
  %17 = load ptr, ptr %2, align 8, !tbaa !32
  %18 = getelementptr inbounds nuw %struct.aclSelector, ptr %17, i32 0, i32 2
  %19 = load ptr, ptr %18, align 8, !tbaa !69
  %20 = load i32, ptr %3, align 4, !tbaa !17
  %21 = sext i32 %20 to i64
  %22 = getelementptr inbounds ptr, ptr %19, i64 %21
  %23 = load ptr, ptr %22, align 8, !tbaa !33
  %24 = icmp ne ptr %23, null
  br i1 %24, label %25, label %63

25:                                               ; preds = %16
  call void @llvm.lifetime.start.p0(i64 4, ptr %5) #14
  store i32 0, ptr %5, align 4, !tbaa !17
  br label %26

26:                                               ; preds = %52, %25
  %27 = load ptr, ptr %2, align 8, !tbaa !32
  %28 = getelementptr inbounds nuw %struct.aclSelector, ptr %27, i32 0, i32 2
  %29 = load ptr, ptr %28, align 8, !tbaa !69
  %30 = load i32, ptr %3, align 4, !tbaa !17
  %31 = sext i32 %30 to i64
  %32 = getelementptr inbounds ptr, ptr %29, i64 %31
  %33 = load ptr, ptr %32, align 8, !tbaa !33
  %34 = load i32, ptr %5, align 4, !tbaa !17
  %35 = sext i32 %34 to i64
  %36 = getelementptr inbounds ptr, ptr %33, i64 %35
  %37 = load ptr, ptr %36, align 8, !tbaa !5
  %38 = icmp ne ptr %37, null
  br i1 %38, label %40, label %39

39:                                               ; preds = %26
  store i32 5, ptr %4, align 4
  call void @llvm.lifetime.end.p0(i64 4, ptr %5) #14
  br label %55

40:                                               ; preds = %26
  %41 = load ptr, ptr %2, align 8, !tbaa !32
  %42 = getelementptr inbounds nuw %struct.aclSelector, ptr %41, i32 0, i32 2
  %43 = load ptr, ptr %42, align 8, !tbaa !69
  %44 = load i32, ptr %3, align 4, !tbaa !17
  %45 = sext i32 %44 to i64
  %46 = getelementptr inbounds ptr, ptr %43, i64 %45
  %47 = load ptr, ptr %46, align 8, !tbaa !33
  %48 = load i32, ptr %5, align 4, !tbaa !17
  %49 = sext i32 %48 to i64
  %50 = getelementptr inbounds ptr, ptr %47, i64 %49
  %51 = load ptr, ptr %50, align 8, !tbaa !5
  call void @sdsfree(ptr noundef %51)
  br label %52

52:                                               ; preds = %40
  %53 = load i32, ptr %5, align 4, !tbaa !17
  %54 = add nsw i32 %53, 1
  store i32 %54, ptr %5, align 4, !tbaa !17
  br label %26, !llvm.loop !76

55:                                               ; preds = %39
  %56 = load ptr, ptr %2, align 8, !tbaa !32
  %57 = getelementptr inbounds nuw %struct.aclSelector, ptr %56, i32 0, i32 2
  %58 = load ptr, ptr %57, align 8, !tbaa !69
  %59 = load i32, ptr %3, align 4, !tbaa !17
  %60 = sext i32 %59 to i64
  %61 = getelementptr inbounds ptr, ptr %58, i64 %60
  %62 = load ptr, ptr %61, align 8, !tbaa !33
  call void @zfree(ptr noundef %62)
  br label %63

63:                                               ; preds = %55, %16
  br label %64

64:                                               ; preds = %63
  %65 = load i32, ptr %3, align 4, !tbaa !17
  %66 = add nsw i32 %65, 1
  store i32 %66, ptr %3, align 4, !tbaa !17
  br label %12, !llvm.loop !77

67:                                               ; preds = %15
  %68 = load ptr, ptr %2, align 8, !tbaa !32
  %69 = getelementptr inbounds nuw %struct.aclSelector, ptr %68, i32 0, i32 2
  %70 = load ptr, ptr %69, align 8, !tbaa !69
  call void @zfree(ptr noundef %70)
  %71 = load ptr, ptr %2, align 8, !tbaa !32
  %72 = getelementptr inbounds nuw %struct.aclSelector, ptr %71, i32 0, i32 2
  store ptr null, ptr %72, align 8, !tbaa !69
  br label %73

73:                                               ; preds = %67, %10
  ret void
}

; Function Attrs: nounwind uwtable
define dso_local void @ACLFreeSelector(ptr noundef %0) #0 {
  %2 = alloca ptr, align 8
  store ptr %0, ptr %2, align 8, !tbaa !32
  %3 = load ptr, ptr %2, align 8, !tbaa !32
  %4 = getelementptr inbounds nuw %struct.aclSelector, ptr %3, i32 0, i32 3
  %5 = load ptr, ptr %4, align 8, !tbaa !67
  call void @listRelease(ptr noundef %5)
  %6 = load ptr, ptr %2, align 8, !tbaa !32
  %7 = getelementptr inbounds nuw %struct.aclSelector, ptr %6, i32 0, i32 4
  %8 = load ptr, ptr %7, align 8, !tbaa !68
  call void @listRelease(ptr noundef %8)
  %9 = load ptr, ptr %2, align 8, !tbaa !32
  %10 = getelementptr inbounds nuw %struct.aclSelector, ptr %9, i32 0, i32 5
  %11 = load ptr, ptr %10, align 8, !tbaa !70
  call void @sdsfree(ptr noundef %11)
  %12 = load ptr, ptr %2, align 8, !tbaa !32
  call void @ACLResetFirstArgs(ptr noundef %12)
  %13 = load ptr, ptr %2, align 8, !tbaa !32
  call void @zfree(ptr noundef %13)
  ret void
}