; Function Attrs: nounwind uwtable
define dso_local void @ACLFreeSelector(ptr noundef %0) local_unnamed_addr #0 {
  %2 = getelementptr inbounds nuw i8, ptr %0, i64 144
  %3 = load ptr, ptr %2, align 8, !tbaa !64
  tail call void @listRelease(ptr noundef %3) #25
  %4 = getelementptr inbounds nuw i8, ptr %0, i64 152
  %5 = load ptr, ptr %4, align 8, !tbaa !65
  tail call void @listRelease(ptr noundef %5) #25
  %6 = getelementptr inbounds nuw i8, ptr %0, i64 160
  %7 = load ptr, ptr %6, align 8, !tbaa !67
  tail call void @sdsfree(ptr noundef %7) #25
  %8 = getelementptr inbounds nuw i8, ptr %0, i64 136
  %9 = load ptr, ptr %8, align 8, !tbaa !66
  %10 = icmp eq ptr %9, null
  br i1 %10, label %ACLResetFirstArgs.exit, label %.preheader18.i

11:                                               ; preds = %23
  %12 = load ptr, ptr %8, align 8, !tbaa !66
  tail call void @zfree(ptr noundef %12) #25
  store ptr null, ptr %8, align 8, !tbaa !66
  br label %ACLResetFirstArgs.exit

.preheader18.i:                                   ; preds = %1, %23
  %indvars.iv24.i = phi i64 [ %indvars.iv.next25.i, %23 ], [ 0, %1 ]
  %13 = load ptr, ptr %8, align 8, !tbaa !66
  %14 = getelementptr inbounds nuw ptr, ptr %13, i64 %indvars.iv24.i
  %15 = load ptr, ptr %14, align 8, !tbaa !73
  %.not.i = icmp eq ptr %15, null
  br i1 %.not.i, label %23, label %.preheader.i

.preheader.i:                                     ; preds = %.preheader18.i
  %16 = load ptr, ptr %15, align 8, !tbaa !29
  %.not1719.i = icmp eq ptr %16, null
  br i1 %.not1719.i, label %._crit_edge.i, label %.lr.ph.i

._crit_edge.i:                                    ; preds = %.lr.ph.i, %.preheader.i
  %.lcssa.i = phi ptr [ %15, %.preheader.i ], [ %20, %.lr.ph.i ]
  tail call void @zfree(ptr noundef nonnull %.lcssa.i) #25
  br label %23

.lr.ph.i:                                         ; preds = %.preheader.i, %.lr.ph.i
  %indvars.iv.i = phi i64 [ %indvars.iv.next.i, %.lr.ph.i ], [ 0, %.preheader.i ]
  %17 = phi ptr [ %22, %.lr.ph.i ], [ %16, %.preheader.i ]
  tail call void @sdsfree(ptr noundef nonnull %17) #25
  %indvars.iv.next.i = add nuw nsw i64 %indvars.iv.i, 1
  %18 = load ptr, ptr %8, align 8, !tbaa !66
  %19 = getelementptr inbounds nuw ptr, ptr %18, i64 %indvars.iv24.i
  %20 = load ptr, ptr %19, align 8, !tbaa !73
  %21 = getelementptr inbounds nuw ptr, ptr %20, i64 %indvars.iv.next.i
  %22 = load ptr, ptr %21, align 8, !tbaa !29
  %.not17.i = icmp eq ptr %22, null
  br i1 %.not17.i, label %._crit_edge.i, label %.lr.ph.i, !llvm.loop !74

23:                                               ; preds = %._crit_edge.i, %.preheader18.i
  %indvars.iv.next25.i = add nuw nsw i64 %indvars.iv24.i, 1
  %exitcond.not.i = icmp eq i64 %indvars.iv.next25.i, 1024
  br i1 %exitcond.not.i, label %11, label %.preheader18.i, !llvm.loop !75

ACLResetFirstArgs.exit:                           ; preds = %1, %11
  tail call void @zfree(ptr noundef nonnull %0) #25
  ret void
}